; Function Attrs: mustprogress uwtable
define void @_ZN6casadi17LinearInterpolantC2ERKNSt7__cxx1112basic_stringIcSt11char_traitsIcESaIcEEERKSt6vectorIdSaIdEERKS9_IxSaIxEESD_x(ptr noundef nonnull align 8 dereferenceable(1456) %0, ptr noundef nonnull align 8 dereferenceable(32) %1, ptr noundef nonnull align 8 dereferenceable(24) %2, ptr noundef nonnull align 8 dereferenceable(24) %3, ptr noundef nonnull align 8 dereferenceable(24) %4, i64 noundef %5) unnamed_addr #4 align 2 {
  tail call void @_ZN6casadi11InterpolantC2ERKNSt7__cxx1112basic_stringIcSt11char_traitsIcESaIcEEERKSt6vectorIdSaIdEERKS9_IxSaIxEESD_x(ptr noundef nonnull align 8 dereferenceable(1432) %0, ptr noundef nonnull align 8 dereferenceable(32) %1, ptr noundef nonnull align 8 dereferenceable(24) %2, ptr noundef nonnull align 8 dereferenceable(24) %3, ptr noundef nonnull align 8 dereferenceable(24) %4, i64 noundef %5)
  store ptr getelementptr inbounds ({ [113 x ptr], [3 x ptr] }, ptr @_ZTVN6casadi17LinearInterpolantE, i64 0, i32 0, i64 2), ptr %0, align 8
  %7 = getelementptr inbounds i8, ptr %0, i64 1304
  store ptr getelementptr inbounds ({ [113 x ptr], [3 x ptr] }, ptr @_ZTVN6casadi17LinearInterpolantE, i64 0, i32 1, i64 2), ptr %7, align 8
  %8 = getelementptr inbounds i8, ptr %0, i64 1432
  tail call void @llvm.memset.p0.i64(ptr noundef nonnull align 8 dereferenceable(24) %8, i8 0, i64 24, i1 false)
  ret void
}